target datalayout = "e-m:e-p270:32:32-p271:32:32-p272:64:64-i64:64-i128:128-f80:128-n8:16:32:64-S128"
target triple = "x86_64-pc-linux-gnu"

%struct.pmix_topology_t = type { ptr, ptr }

@.str = private unnamed_addr constant [6 x i8] c"hwloc\00", align 1

; Function Attrs: inlinehint nounwind willreturn memory(read) uwtable
define internal ptr @hwloc_get_root_obj(ptr noundef %0) #6 {
  %2 = alloca ptr, align 8
  store ptr %0, ptr %2, align 8, !tbaa !44
  %3 = load ptr, ptr %2, align 8, !tbaa !44
  %4 = call ptr @hwloc_get_obj_by_depth(ptr noundef %3, i32 noundef 0, i32 noundef 0) #9
  ret ptr %4
}

; Function Attrs: nounwind uwtable
define ptr @pmix_hwloc_print_topology(ptr noundef %0) #0 {
  %2 = alloca ptr, align 8
  %3 = alloca ptr, align 8
  %4 = alloca ptr, align 8
  %5 = alloca ptr, align 8
  %6 = alloca i32, align 4
  store ptr %0, ptr %3, align 8, !tbaa !3
  call void @llvm.lifetime.start.p0(i64 8, ptr %4) #8
  call void @llvm.lifetime.start.p0(i64 8, ptr %5) #8
  store ptr null, ptr %5, align 8, !tbaa !9
  %7 = load ptr, ptr %3, align 8, !tbaa !3
  %8 = getelementptr inbounds nuw %struct.pmix_topology_t, ptr %7, i32 0, i32 0
  %9 = load ptr, ptr %8, align 8, !tbaa !19
  %10 = icmp eq ptr null, %9
  br i1 %10, label %17, label %11

11:                                               ; preds = %1
  %12 = load ptr, ptr %3, align 8, !tbaa !3
  %13 = getelementptr inbounds nuw %struct.pmix_topology_t, ptr %12, i32 0, i32 0
  %14 = load ptr, ptr %13, align 8, !tbaa !19
  %15 = call i32 @strncasecmp(ptr noundef %14, ptr noundef @.str, i64 noundef 5) #9
  %16 = icmp ne i32 0, %15
  br i1 %16, label %17, label %18

17:                                               ; preds = %11, %1
  store ptr null, ptr %2, align 8
  store i32 1, ptr %6, align 4
  br label %28

18:                                               ; preds = %11
  %19 = load ptr, ptr %3, align 8, !tbaa !3
  %20 = getelementptr inbounds nuw %struct.pmix_topology_t, ptr %19, i32 0, i32 1
  %21 = load ptr, ptr %20, align 8, !tbaa !21
  %22 = call ptr @hwloc_get_root_obj(ptr noundef %21) #9
  store ptr %22, ptr %4, align 8, !tbaa !46
  %23 = load ptr, ptr %3, align 8, !tbaa !3
  %24 = getelementptr inbounds nuw %struct.pmix_topology_t, ptr %23, i32 0, i32 1
  %25 = load ptr, ptr %24, align 8, !tbaa !21
  %26 = load ptr, ptr %4, align 8, !tbaa !46
  call void @print_hwloc_obj(ptr noundef %5, ptr noundef null, ptr noundef %25, ptr noundef %26)
  %27 = load ptr, ptr %5, align 8, !tbaa !9
  store ptr %27, ptr %2, align 8
  store i32 1, ptr %6, align 4
  br label %28

28:                                               ; preds = %18, %17
  call void @llvm.lifetime.end.p0(i64 8, ptr %5) #8
  call void @llvm.lifetime.end.p0(i64 8, ptr %4) #8
  %29 = load ptr, ptr %2, align 8
  ret ptr %29
}