; Function Attrs: nounwind uwtable
define ptr @pmix_hwloc_print_topology(ptr noundef readonly captures(none) %0) local_unnamed_addr #0 {
  %2 = alloca ptr, align 8
  call void @llvm.lifetime.start.p0(i64 8, ptr nonnull %2) #7
  store ptr null, ptr %2, align 8, !tbaa !3
  %3 = load ptr, ptr %0, align 8, !tbaa !21
  %4 = icmp eq ptr %3, null
  br i1 %4, label %12, label %5

5:                                                ; preds = %1
  %6 = tail call i32 @strncasecmp(ptr noundef nonnull %3, ptr noundef nonnull @.str, i64 noundef 5) #8
  %.not = icmp eq i32 %6, 0
  br i1 %.not, label %7, label %12

7:                                                ; preds = %5
  %8 = getelementptr inbounds nuw i8, ptr %0, i64 8
  %9 = load ptr, ptr %8, align 8, !tbaa !23
  %10 = tail call ptr @hwloc_get_obj_by_depth(ptr noundef readonly %9, i32 noundef 0, i32 noundef 0) #8
  call fastcc void @print_hwloc_obj(ptr noundef %2, ptr noundef null, ptr noundef %9, ptr noundef %10)
  %11 = load ptr, ptr %2, align 8, !tbaa !3
  br label %12

12:                                               ; preds = %1, %5, %7
  %.0 = phi ptr [ %11, %7 ], [ null, %5 ], [ null, %1 ]
  call void @llvm.lifetime.end.p0(i64 8, ptr nonnull %2) #7
  ret ptr %.0
}